	.file	"asso.c"
	.text
	.globl	sum_array
	.type	sum_array, @function
sum_array:
.LFB0:
	.cfi_startproc
	pushq	%rbp
	.cfi_def_cfa_offset 16
	.cfi_offset 6, -16
	movq	%rsp, %rbp
	.cfi_def_cfa_register 6
	movq	%rdi, -24(%rbp)
	movq	%rsi, -32(%rbp)
	movl	$0, -12(%rbp)
	movq	$0, -8(%rbp)
	jmp	.L2
.L3:
	movq	-8(%rbp), %rax
	leaq	0(,%rax,4), %rdx
	movq	-24(%rbp), %rax
	addq	%rdx, %rax
	movl	(%rax), %eax
	addl	%eax, -12(%rbp)
	addq	$1, -8(%rbp)
.L2:
	movq	-8(%rbp), %rax
	cmpq	-32(%rbp), %rax
	jb	.L3
	movl	-12(%rbp), %eax
	popq	%rbp
	.cfi_def_cfa 7, 8
	ret
	.cfi_endproc
.LFE0:
	.size	sum_array, .-sum_array
	.globl	copy_struct
	.type	copy_struct, @function
copy_struct:
.LFB1:
	.cfi_startproc
	pushq	%rbp
	.cfi_def_cfa_offset 16
	.cfi_offset 6, -16
	movq	%rsp, %rbp
	.cfi_def_cfa_register 6
	movq	%rdi, %rax
	movq	%rax, %rax
	movl	$0, %edx
	movq	%xmm0, %rdx
	movq	%rax, -32(%rbp)
	movq	%rdx, -24(%rbp)
	movq	-32(%rbp), %rax
	movq	-24(%rbp), %rdx
	movq	%rax, -16(%rbp)
	movq	%rdx, -8(%rbp)
	movq	-16(%rbp), %rax
	movq	-8(%rbp), %rdx
	movq	%rax, %rcx
	movq	%rdx, %xmm0
	movq	%rcx, %rax
	popq	%rbp
	.cfi_def_cfa 7, 8
	ret
	.cfi_endproc
.LFE1:
	.size	copy_struct, .-copy_struct
	.globl	multiply_normal
	.type	multiply_normal, @function
multiply_normal:
.LFB2:
	.cfi_startproc
	pushq	%rbp
	.cfi_def_cfa_offset 16
	.cfi_offset 6, -16
	movq	%rsp, %rbp
	.cfi_def_cfa_register 6
	movl	%edi, -4(%rbp)
	movl	-4(%rbp), %eax
	addl	%eax, %eax
	popq	%rbp
	.cfi_def_cfa 7, 8
	ret
	.cfi_endproc
.LFE2:
	.size	multiply_normal, .-multiply_normal
	.type	multiply_inline, @function
multiply_inline:
.LFB3:
	.cfi_startproc
	pushq	%rbp
	.cfi_def_cfa_offset 16
	.cfi_offset 6, -16
	movq	%rsp, %rbp
	.cfi_def_cfa_register 6
	movl	%edi, -4(%rbp)
	movl	-4(%rbp), %eax
	addl	%eax, %eax
	popq	%rbp
	.cfi_def_cfa 7, 8
	ret
	.cfi_endproc
.LFE3:
	.size	multiply_inline, .-multiply_inline
	.globl	test_inline
	.type	test_inline, @function
test_inline:
.LFB4:
	.cfi_startproc
	pushq	%rbp
	.cfi_def_cfa_offset 16
	.cfi_offset 6, -16
	movq	%rsp, %rbp
	.cfi_def_cfa_register 6
	subq	$8, %rsp
	movl	%edi, -4(%rbp)
	movl	-4(%rbp), %eax
	movl	%eax, %edi
	call	multiply_inline
	leave
	.cfi_def_cfa 7, 8
	ret
	.cfi_endproc
.LFE4:
	.size	test_inline, .-test_inline
	.globl	test_normal
	.type	test_normal, @function
test_normal:
.LFB5:
	.cfi_startproc
	pushq	%rbp
	.cfi_def_cfa_offset 16
	.cfi_offset 6, -16
	movq	%rsp, %rbp
	.cfi_def_cfa_register 6
	subq	$8, %rsp
	movl	%edi, -4(%rbp)
	movl	-4(%rbp), %eax
	movl	%eax, %edi
	call	multiply_normal
	leave
	.cfi_def_cfa 7, 8
	ret
	.cfi_endproc
.LFE5:
	.size	test_normal, .-test_normal
	.globl	simplified_branch
	.type	simplified_branch, @function
simplified_branch:
.LFB6:
	.cfi_startproc
	pushq	%rbp
	.cfi_def_cfa_offset 16
	.cfi_offset 6, -16
	movq	%rsp, %rbp
	.cfi_def_cfa_register 6
	movl	$42, %eax
	popq	%rbp
	.cfi_def_cfa 7, 8
	ret
	.cfi_endproc
.LFE6:
	.size	simplified_branch, .-simplified_branch
	.globl	dereference_chain
	.type	dereference_chain, @function
dereference_chain:
.LFB7:
	.cfi_startproc
	pushq	%rbp
	.cfi_def_cfa_offset 16
	.cfi_offset 6, -16
	movq	%rsp, %rbp
	.cfi_def_cfa_register 6
	movq	%rdi, -8(%rbp)
	movq	-8(%rbp), %rax
	movq	(%rax), %rax
	movq	(%rax), %rax
	movl	8(%rax), %eax
	popq	%rbp
	.cfi_def_cfa 7, 8
	ret
	.cfi_endproc
.LFE7:
	.size	dereference_chain, .-dereference_chain
	.ident	"GCC: (GNU) 16.1.1 20260430"
	.section	.note.GNU-stack,"",@progbits
